target datalayout = "e-m:e-p270:32:32-p271:32:32-p272:64:64-i64:64-i128:128-f80:128-n8:16:32:64-S128"
target triple = "x86_64-pc-linux-gnu"

%struct.AVRational = type { i32, i32 }
%struct.CIDEntry = type { i32, i32, i32, i32, i32, i16, i32, i32, i32, ptr, ptr, ptr, ptr, ptr, ptr, ptr, ptr, ptr, ptr, [5 x i32], %struct.AVRational }
%struct.AVCodecContext = type { ptr, i32, i32, ptr, i32, i32, ptr, ptr, ptr, i64, i32, i32, ptr, i32, %struct.AVRational, %struct.AVRational, %struct.AVRational, i32, i32, i32, i32, i32, %struct.AVRational, i32, i32, i32, i32, i32, i32, i32, i32, i32, i32, i32, ptr, ptr, i32, float, float, float, float, float, float, float, float, float, i32, i32, i32, i32, i32, i32, i32, i32, i32, i32, i32, i32, ptr, ptr, ptr, i32, i32, i32, i32, i32, i32, i32, i32, i32, i32, %struct.AVChannelLayout, i32, i32, i32, i32, i32, i32, i32, i32, ptr, i32, i32, i32, float, float, i32, i32, i32, i32, i32, ptr, i64, i64, float, float, i32, i32, ptr, ptr, i32, i32, i32, i32, i32, ptr, ptr, ptr, ptr, i32, i32, [8 x i64], i32, i32, i32, i32, i32, i32, i32, ptr, ptr, i32, i32, i32, i32, i32, i32, i32, i32, i32, i32, ptr, ptr, i32, i32, ptr, ptr, ptr, ptr, i32, i32, i64, i32, i32, i64, ptr, i64, ptr, i32, ptr, i32 }
%struct.AVChannelLayout = type { i32, i32, %union.anon, ptr }
%union.anon = type { i64 }

@.str = private unnamed_addr constant [34 x i8] c"Profile selected is experimental\0A\00", align 1

; Function Attrs: nounwind uwtable
define internal i32 @dnxhd_find_hr_cid(ptr noundef %0) #0 {
  %2 = alloca i32, align 4
  %3 = alloca ptr, align 8
  store ptr %0, ptr %3, align 8, !tbaa !22
  %4 = load ptr, ptr %3, align 8, !tbaa !22
  %5 = getelementptr inbounds nuw %struct.AVCodecContext, ptr %4, i32 0, i32 121
  %6 = load i32, ptr %5, align 8, !tbaa !40
  switch i32 %6, label %12 [
    i32 5, label %7
    i32 4, label %8
    i32 3, label %9
    i32 2, label %10
    i32 1, label %11
  ]

7:                                                ; preds = %1
  store i32 1270, ptr %2, align 4
  br label %13

8:                                                ; preds = %1
  store i32 1271, ptr %2, align 4
  br label %13

9:                                                ; preds = %1
  store i32 1272, ptr %2, align 4
  br label %13

10:                                               ; preds = %1
  store i32 1273, ptr %2, align 4
  br label %13

11:                                               ; preds = %1
  store i32 1274, ptr %2, align 4
  br label %13

12:                                               ; preds = %1
  store i32 0, ptr %2, align 4
  br label %13

13:                                               ; preds = %12, %11, %10, %9, %8, %7
  %14 = load i32, ptr %2, align 4
  ret i32 %14
}

; Function Attrs: nounwind uwtable
define i32 @ff_dnxhd_find_cid(ptr noundef %0, i32 noundef %1) #0 {
  %3 = alloca i32, align 4
  %4 = alloca ptr, align 8
  %5 = alloca i32, align 4
  %6 = alloca i32, align 4
  %7 = alloca i32, align 4
  %8 = alloca i32, align 4
  %9 = alloca i32, align 4
  %10 = alloca ptr, align 8
  %11 = alloca i32, align 4
  store ptr %0, ptr %4, align 8, !tbaa !22
  store i32 %1, ptr %5, align 4, !tbaa !4
  call void @llvm.lifetime.start.p0(i64 4, ptr %6) #3
  call void @llvm.lifetime.start.p0(i64 4, ptr %7) #3
  call void @llvm.lifetime.start.p0(i64 4, ptr %8) #3
  %12 = load ptr, ptr %4, align 8, !tbaa !22
  %13 = getelementptr inbounds nuw %struct.AVCodecContext, ptr %12, i32 0, i32 9
  %14 = load i64, ptr %13, align 8, !tbaa !24
  %15 = sdiv i64 %14, 1000000
  %16 = trunc i64 %15 to i32
  store i32 %16, ptr %8, align 4, !tbaa !4
  %17 = load ptr, ptr %4, align 8, !tbaa !22
  %18 = getelementptr inbounds nuw %struct.AVCodecContext, ptr %17, i32 0, i32 121
  %19 = load i32, ptr %18, align 8, !tbaa !40
  %20 = icmp ne i32 %19, 0
  br i1 %20, label %21, label %24

21:                                               ; preds = %2
  %22 = load ptr, ptr %4, align 8, !tbaa !22
  %23 = call i32 @dnxhd_find_hr_cid(ptr noundef %22)
  store i32 %23, ptr %3, align 4
  store i32 1, ptr %9, align 4
  br label %128

24:                                               ; preds = %2
  %25 = load i32, ptr %8, align 4, !tbaa !4
  %26 = icmp ne i32 %25, 0
  br i1 %26, label %28, label %27

27:                                               ; preds = %24
  store i32 0, ptr %3, align 4
  store i32 1, ptr %9, align 4
  br label %128

28:                                               ; preds = %24
  store i32 0, ptr %6, align 4, !tbaa !4
  br label %29

29:                                               ; preds = %124, %28
  %30 = load i32, ptr %6, align 4, !tbaa !4
  %31 = sext i32 %30 to i64
  %32 = icmp ult i64 %31, 20
  br i1 %32, label %33, label %127

33:                                               ; preds = %29
  call void @llvm.lifetime.start.p0(i64 8, ptr %10) #3
  %34 = load i32, ptr %6, align 4, !tbaa !4
  %35 = sext i32 %34 to i64
  %36 = getelementptr inbounds [20 x %struct.CIDEntry], ptr @dnxhd_cid_table, i64 0, i64 %35
  store ptr %36, ptr %10, align 8, !tbaa !17
  call void @llvm.lifetime.start.p0(i64 4, ptr %11) #3
  %37 = load ptr, ptr %10, align 8, !tbaa !17
  %38 = getelementptr inbounds nuw %struct.CIDEntry, ptr %37, i32 0, i32 5
  %39 = load i16, ptr %38, align 4, !tbaa !41
  %40 = zext i16 %39 to i32
  %41 = and i32 %40, 1
  %42 = icmp ne i32 %41, 0
  %43 = select i1 %42, i32 1, i32 0
  store i32 %43, ptr %11, align 4, !tbaa !4
  %44 = load ptr, ptr %10, align 8, !tbaa !17
  %45 = getelementptr inbounds nuw %struct.CIDEntry, ptr %44, i32 0, i32 1
  %46 = load i32, ptr %45, align 4, !tbaa !42
  %47 = load ptr, ptr %4, align 8, !tbaa !22
  %48 = getelementptr inbounds nuw %struct.AVCodecContext, ptr %47, i32 0, i32 18
  %49 = load i32, ptr %48, align 8, !tbaa !43
  %50 = icmp eq i32 %46, %49
  br i1 %50, label %51, label %120

51:                                               ; preds = %33
  %52 = load ptr, ptr %10, align 8, !tbaa !17
  %53 = getelementptr inbounds nuw %struct.CIDEntry, ptr %52, i32 0, i32 2
  %54 = load i32, ptr %53, align 8, !tbaa !44
  %55 = load ptr, ptr %4, align 8, !tbaa !22
  %56 = getelementptr inbounds nuw %struct.AVCodecContext, ptr %55, i32 0, i32 19
  %57 = load i32, ptr %56, align 4, !tbaa !45
  %58 = icmp eq i32 %54, %57
  br i1 %58, label %59, label %120

59:                                               ; preds = %51
  %60 = load i32, ptr %11, align 4, !tbaa !4
  %61 = load ptr, ptr %4, align 8, !tbaa !22
  %62 = getelementptr inbounds nuw %struct.AVCodecContext, ptr %61, i32 0, i32 10
  %63 = load i32, ptr %62, align 8, !tbaa !46
  %64 = and i32 %63, 262144
  %65 = icmp ne i32 %64, 0
  %66 = xor i1 %65, true
  %67 = xor i1 %66, true
  %68 = zext i1 %67 to i32
  %69 = icmp eq i32 %60, %68
  br i1 %69, label %70, label %120

70:                                               ; preds = %59
  %71 = load ptr, ptr %10, align 8, !tbaa !17
  %72 = getelementptr inbounds nuw %struct.CIDEntry, ptr %71, i32 0, i32 5
  %73 = load i16, ptr %72, align 4, !tbaa !41
  %74 = zext i16 %73 to i32
  %75 = and i32 %74, 4
  %76 = icmp ne i32 %75, 0
  br i1 %76, label %120, label %77

77:                                               ; preds = %70
  %78 = load ptr, ptr %10, align 8, !tbaa !17
  %79 = getelementptr inbounds nuw %struct.CIDEntry, ptr %78, i32 0, i32 7
  %80 = load i32, ptr %79, align 4, !tbaa !47
  %81 = load i32, ptr %5, align 4, !tbaa !4
  %82 = icmp eq i32 %80, %81
  br i1 %82, label %83, label %120

83:                                               ; preds = %77
  %84 = load ptr, ptr %4, align 8, !tbaa !22
  %85 = getelementptr inbounds nuw %struct.AVCodecContext, ptr %84, i32 0, i32 101
  %86 = load i32, ptr %85, align 4, !tbaa !48
  %87 = icmp sgt i32 %86, -2
  br i1 %87, label %88, label %97

88:                                               ; preds = %83
  %89 = load ptr, ptr %10, align 8, !tbaa !17
  %90 = getelementptr inbounds nuw %struct.CIDEntry, ptr %89, i32 0, i32 5
  %91 = load i16, ptr %90, align 4, !tbaa !41
  %92 = zext i16 %91 to i32
  %93 = and i32 %92, 2
  %94 = icmp ne i32 %93, 0
  br i1 %94, label %95, label %97

95:                                               ; preds = %88
  %96 = load ptr, ptr %4, align 8, !tbaa !22
  call void (ptr, i32, ptr, ...) @av_log(ptr noundef %96, i32 noundef 24, ptr noundef @.str)
  store i32 4, ptr %9, align 4
  br label %121

97:                                               ; preds = %88, %83
  store i32 0, ptr %7, align 4, !tbaa !4
  br label %98

98:                                               ; preds = %116, %97
  %99 = load i32, ptr %7, align 4, !tbaa !4
  %100 = sext i32 %99 to i64
  %101 = icmp ult i64 %100, 5
  br i1 %101, label %102, label %119

102:                                              ; preds = %98
  %103 = load ptr, ptr %10, align 8, !tbaa !17
  %104 = getelementptr inbounds nuw %struct.CIDEntry, ptr %103, i32 0, i32 19
  %105 = load i32, ptr %7, align 4, !tbaa !4
  %106 = sext i32 %105 to i64
  %107 = getelementptr inbounds [5 x i32], ptr %104, i64 0, i64 %106
  %108 = load i32, ptr %107, align 4, !tbaa !4
  %109 = load i32, ptr %8, align 4, !tbaa !4
  %110 = icmp eq i32 %108, %109
  br i1 %110, label %111, label %115

111:                                              ; preds = %102
  %112 = load ptr, ptr %10, align 8, !tbaa !17
  %113 = getelementptr inbounds nuw %struct.CIDEntry, ptr %112, i32 0, i32 0
  %114 = load i32, ptr %113, align 8, !tbaa !8
  store i32 %114, ptr %3, align 4
  store i32 1, ptr %9, align 4
  br label %121

115:                                              ; preds = %102
  br label %116

116:                                              ; preds = %115
  %117 = load i32, ptr %7, align 4, !tbaa !4
  %118 = add nsw i32 %117, 1
  store i32 %118, ptr %7, align 4, !tbaa !4
  br label %98, !llvm.loop !49

119:                                              ; preds = %98
  br label %120

120:                                              ; preds = %119, %77, %70, %59, %51, %33
  store i32 0, ptr %9, align 4
  br label %121

121:                                              ; preds = %120, %111, %95
  call void @llvm.lifetime.end.p0(i64 4, ptr %11) #3
  call void @llvm.lifetime.end.p0(i64 8, ptr %10) #3
  %122 = load i32, ptr %9, align 4
  switch i32 %122, label %128 [
    i32 0, label %123
    i32 4, label %124
  ]

123:                                              ; preds = %121
  br label %124

124:                                              ; preds = %123, %121
  %125 = load i32, ptr %6, align 4, !tbaa !4
  %126 = add nsw i32 %125, 1
  store i32 %126, ptr %6, align 4, !tbaa !4
  br label %29, !llvm.loop !50

127:                                              ; preds = %29
  store i32 0, ptr %3, align 4
  store i32 1, ptr %9, align 4
  br label %128

128:                                              ; preds = %127, %121, %27, %21
  call void @llvm.lifetime.end.p0(i64 4, ptr %8) #3
  call void @llvm.lifetime.end.p0(i64 4, ptr %7) #3
  call void @llvm.lifetime.end.p0(i64 4, ptr %6) #3
  %129 = load i32, ptr %3, align 4
  ret i32 %129
}