; Function Attrs: nounwind uwtable
define i32 @ff_dnxhd_find_cid(ptr noundef %0, i32 noundef %1) local_unnamed_addr #1 {
  %3 = getelementptr inbounds nuw i8, ptr %0, i64 56
  %4 = load i64, ptr %3, align 8, !tbaa !19
  %5 = sdiv i64 %4, 1000000
  %6 = trunc i64 %5 to i32
  %7 = getelementptr inbounds nuw i8, ptr %0, i64 688
  %8 = load i32, ptr %7, align 8, !tbaa !35
  switch i32 %8, label %13 [
    i32 0, label %14
    i32 5, label %dnxhd_find_hr_cid.exit
    i32 4, label %9
    i32 3, label %10
    i32 2, label %11
    i32 1, label %12
  ]

9:                                                ; preds = %2
  br label %dnxhd_find_hr_cid.exit

10:                                               ; preds = %2
  br label %dnxhd_find_hr_cid.exit

11:                                               ; preds = %2
  br label %dnxhd_find_hr_cid.exit

12:                                               ; preds = %2
  br label %dnxhd_find_hr_cid.exit

13:                                               ; preds = %2
  br label %dnxhd_find_hr_cid.exit

14:                                               ; preds = %2
  %.not33 = icmp eq i32 %6, 0
  br i1 %.not33, label %dnxhd_find_hr_cid.exit, label %.preheader41

.preheader41:                                     ; preds = %14
  %15 = getelementptr inbounds nuw i8, ptr %0, i64 112
  %16 = getelementptr inbounds nuw i8, ptr %0, i64 116
  %17 = getelementptr inbounds nuw i8, ptr %0, i64 64
  %18 = getelementptr inbounds nuw i8, ptr %0, i64 516
  br label %19

19:                                               ; preds = %.preheader41, %.loopexit
  %indvars.iv46 = phi i64 [ 0, %.preheader41 ], [ %indvars.iv.next47, %.loopexit ]
  %20 = getelementptr inbounds nuw [20 x %struct.CIDEntry], ptr @dnxhd_cid_table, i64 0, i64 %indvars.iv46
  %21 = getelementptr inbounds nuw i8, ptr %20, i64 20
  %22 = load i16, ptr %21, align 4, !tbaa !36
  %23 = zext i16 %22 to i32
  %24 = getelementptr inbounds nuw i8, ptr %20, i64 4
  %25 = load i32, ptr %24, align 4, !tbaa !37
  %26 = load i32, ptr %15, align 8, !tbaa !38
  %27 = icmp eq i32 %25, %26
  br i1 %27, label %28, label %.loopexit

28:                                               ; preds = %19
  %29 = getelementptr inbounds nuw i8, ptr %20, i64 8
  %30 = load i32, ptr %29, align 8, !tbaa !39
  %31 = load i32, ptr %16, align 4, !tbaa !40
  %32 = icmp eq i32 %30, %31
  br i1 %32, label %33, label %.loopexit

33:                                               ; preds = %28
  %34 = load i32, ptr %17, align 8, !tbaa !41
  %35 = lshr i32 %34, 18
  %36 = xor i32 %35, %23
  %37 = and i32 %36, 1
  %38 = icmp eq i32 %37, 0
  %39 = and i32 %23, 4
  %.not35 = icmp eq i32 %39, 0
  %or.cond = select i1 %38, i1 %.not35, i1 false
  br i1 %or.cond, label %40, label %.loopexit

40:                                               ; preds = %33
  %41 = getelementptr inbounds nuw i8, ptr %20, i64 28
  %42 = load i32, ptr %41, align 4, !tbaa !42
  %43 = icmp eq i32 %42, %1
  br i1 %43, label %44, label %.loopexit

44:                                               ; preds = %40
  %45 = load i32, ptr %18, align 4, !tbaa !43
  %46 = icmp slt i32 %45, -1
  %47 = and i32 %23, 2
  %.not36 = icmp eq i32 %47, 0
  %or.cond37 = select i1 %46, i1 true, i1 %.not36
  br i1 %or.cond37, label %.preheader, label %49

.preheader:                                       ; preds = %44
  %48 = getelementptr inbounds nuw i8, ptr %20, i64 120
  br label %51

49:                                               ; preds = %44
  tail call void (ptr, i32, ptr, ...) @av_log(ptr noundef nonnull %0, i32 noundef 24, ptr noundef nonnull @.str) #4
  br label %.loopexit

50:                                               ; preds = %51
  %indvars.iv.next = add nuw nsw i64 %indvars.iv, 1
  %exitcond.not = icmp eq i64 %indvars.iv.next, 5
  br i1 %exitcond.not, label %.loopexit, label %51, !llvm.loop !44

51:                                               ; preds = %.preheader, %50
  %indvars.iv = phi i64 [ 0, %.preheader ], [ %indvars.iv.next, %50 ]
  %52 = getelementptr inbounds nuw [5 x i32], ptr %48, i64 0, i64 %indvars.iv
  %53 = load i32, ptr %52, align 4, !tbaa !45
  %54 = icmp eq i32 %53, %6
  br i1 %54, label %55, label %50

55:                                               ; preds = %51
  %56 = load i32, ptr %20, align 8, !tbaa !6
  br label %dnxhd_find_hr_cid.exit

.loopexit:                                        ; preds = %50, %49, %40, %33, %28, %19
  %indvars.iv.next47 = add nuw nsw i64 %indvars.iv46, 1
  %exitcond49.not = icmp eq i64 %indvars.iv.next47, 20
  br i1 %exitcond49.not, label %dnxhd_find_hr_cid.exit, label %19, !llvm.loop !46

dnxhd_find_hr_cid.exit:                           ; preds = %.loopexit, %2, %55, %13, %12, %11, %10, %9, %14
  %.0 = phi i32 [ %56, %55 ], [ 0, %14 ], [ 0, %13 ], [ 1274, %12 ], [ 1273, %11 ], [ 1272, %10 ], [ 1271, %9 ], [ 1270, %2 ], [ 0, %.loopexit ]
  ret i32 %.0
}